
U5.elf:     file format elf32-avr

Sections:
Idx Name          Size      VMA       LMA       File off  Algn
  0 .data         00000000  00800100  00800100  000004d0  2**0
                  ALLOC, LOAD, DATA
  1 .text         0000008e  00000000  00000000  00000074  2**1
                  CONTENTS, ALLOC, LOAD, READONLY, CODE
  2 .comment      0000002f  00000000  00000000  000004d0  2**0
                  CONTENTS, READONLY
  3 .stack.descriptors.hdr 0000001c  00000000  00000000  000004ff  2**0
                  CONTENTS, READONLY
  4 .debug_aranges 00000090  00000000  00000000  0000051b  2**0
                  CONTENTS, READONLY, DEBUGGING
  5 .debug_info   0000144b  00000000  00000000  000005ab  2**0
                  CONTENTS, READONLY, DEBUGGING
  6 .debug_abbrev 00000938  00000000  00000000  000019f6  2**0
                  CONTENTS, READONLY, DEBUGGING
  7 .debug_line   00000839  00000000  00000000  0000232e  2**0
                  CONTENTS, READONLY, DEBUGGING
  8 .debug_frame  000000fc  00000000  00000000  00002b68  2**2
                  CONTENTS, READONLY, DEBUGGING
  9 .debug_str    00000253  00000000  00000000  00002c64  2**0
                  CONTENTS, READONLY, DEBUGGING
 10 .debug_loc    00000836  00000000  00000000  00002eb7  2**0
                  CONTENTS, READONLY, DEBUGGING
 11 .debug_ranges 00000130  00000000  00000000  000036ed  2**0
                  CONTENTS, READONLY, DEBUGGING
 12 .text         00000004  0000044e  0000044e  000004c2  2**1
                  CONTENTS, ALLOC, LOAD, READONLY, CODE
 13 .note.gnu.avr.deviceinfo 0000003c  00000000  00000000  00003820  2**2
                  CONTENTS, READONLY, DEBUGGING
 14 .text.playTone 000001b2  0000008e  0000008e  00000102  2**1
                  CONTENTS, ALLOC, LOAD, READONLY, CODE
 15 .text.sound_success 00000014  0000040a  0000040a  0000047e  2**1
                  CONTENTS, ALLOC, LOAD, READONLY, CODE
 16 .text.sound_input 00000008  00000446  00000446  000004ba  2**1
                  CONTENTS, ALLOC, LOAD, READONLY, CODE
 17 .text.sound_fail 0000000e  0000041e  0000041e  00000492  2**1
                  CONTENTS, ALLOC, LOAD, READONLY, CODE
 18 .text.initIOports 00000020  000003d4  000003d4  00000448  2**1
                  CONTENTS, ALLOC, LOAD, READONLY, CODE
 19 .text.transmitByte 0000000e  0000042c  0000042c  000004a0  2**1
                  CONTENTS, ALLOC, LOAD, READONLY, CODE
 20 .text.readShiftRegisters 00000064  00000370  00000370  000003e4  2**1
                  CONTENTS, ALLOC, LOAD, READONLY, CODE
 21 .text.main    00000130  00000240  00000240  000002b4  2**1
                  CONTENTS, ALLOC, LOAD, READONLY, CODE
 22 .text.libgcc  0000000c  0000043a  0000043a  000004ae  2**1
                  CONTENTS, ALLOC, LOAD, READONLY, CODE
 23 .text.__dummy_fini 00000002  00000456  00000456  000004ca  2**1
                  CONTENTS, ALLOC, LOAD, READONLY, CODE
 24 .text.__dummy_funcs_on_exit 00000002  00000458  00000458  000004cc  2**1
                  CONTENTS, ALLOC, LOAD, READONLY, CODE
 25 .text.__dummy_simulator_exit 00000002  0000045a  0000045a  000004ce  2**1
                  CONTENTS, ALLOC, LOAD, READONLY, CODE
 26 .text.exit    00000016  000003f4  000003f4  00000468  2**1
                  CONTENTS, ALLOC, LOAD, READONLY, CODE
 27 .text._Exit   00000004  00000452  00000452  000004c6  2**1
                  CONTENTS, ALLOC, LOAD, READONLY, CODE

Disassembly of section .text:

00000000 <__vectors>:
   0:	0c 94 3b 00 	jmp	0x76	; 0x76 <__ctors_end>
   4:	0c 94 27 02 	jmp	0x44e	; 0x44e <__bad_interrupt>
   8:	0c 94 27 02 	jmp	0x44e	; 0x44e <__bad_interrupt>
   c:	0c 94 27 02 	jmp	0x44e	; 0x44e <__bad_interrupt>
  10:	0c 94 27 02 	jmp	0x44e	; 0x44e <__bad_interrupt>
  14:	0c 94 27 02 	jmp	0x44e	; 0x44e <__bad_interrupt>
  18:	0c 94 27 02 	jmp	0x44e	; 0x44e <__bad_interrupt>
  1c:	0c 94 27 02 	jmp	0x44e	; 0x44e <__bad_interrupt>
  20:	0c 94 27 02 	jmp	0x44e	; 0x44e <__bad_interrupt>
  24:	0c 94 27 02 	jmp	0x44e	; 0x44e <__bad_interrupt>
  28:	0c 94 27 02 	jmp	0x44e	; 0x44e <__bad_interrupt>
  2c:	0c 94 27 02 	jmp	0x44e	; 0x44e <__bad_interrupt>
  30:	0c 94 27 02 	jmp	0x44e	; 0x44e <__bad_interrupt>
  34:	0c 94 27 02 	jmp	0x44e	; 0x44e <__bad_interrupt>
  38:	0c 94 27 02 	jmp	0x44e	; 0x44e <__bad_interrupt>
  3c:	0c 94 27 02 	jmp	0x44e	; 0x44e <__bad_interrupt>
  40:	0c 94 27 02 	jmp	0x44e	; 0x44e <__bad_interrupt>
  44:	0c 94 27 02 	jmp	0x44e	; 0x44e <__bad_interrupt>
  48:	0c 94 27 02 	jmp	0x44e	; 0x44e <__bad_interrupt>
  4c:	0c 94 27 02 	jmp	0x44e	; 0x44e <__bad_interrupt>
  50:	0c 94 27 02 	jmp	0x44e	; 0x44e <__bad_interrupt>
  54:	0c 94 27 02 	jmp	0x44e	; 0x44e <__bad_interrupt>
  58:	0c 94 27 02 	jmp	0x44e	; 0x44e <__bad_interrupt>
  5c:	0c 94 27 02 	jmp	0x44e	; 0x44e <__bad_interrupt>
  60:	0c 94 27 02 	jmp	0x44e	; 0x44e <__bad_interrupt>
  64:	0c 94 27 02 	jmp	0x44e	; 0x44e <__bad_interrupt>
  68:	64 00       	.word	0x0064	; ????
  6a:	83 00       	.word	0x0083	; ????
  6c:	9e 00       	.word	0x009e	; ????
  6e:	b9 00       	.word	0x00b9	; ????
  70:	d8 00       	.word	0x00d8	; ????
  72:	f7 00       	.word	0x00f7	; ????
  74:	16 01       	movw	r2, r12

00000076 <__ctors_end>:
  76:	11 24       	eor	r1, r1
  78:	1f be       	out	0x3f, r1	; 63
  7a:	cf ef       	ldi	r28, 0xFF	; 255
  7c:	d4 e0       	ldi	r29, 0x04	; 4
  7e:	de bf       	out	0x3e, r29	; 62
  80:	cd bf       	out	0x3d, r28	; 61
  82:	0e 94 20 01 	call	0x240	; 0x240 <main>
  86:	0c 94 fa 01 	jmp	0x3f4	; 0x3f4 <exit>

0000008a <_exit>:
  8a:	f8 94       	cli

0000008c <__stop_program>:
  8c:	ff cf       	rjmp	.-2      	; 0x8c <__stop_program>

Disassembly of section .text:

0000044e <__bad_interrupt>:
 44e:	0c 94 00 00 	jmp	0	; 0x0 <__TEXT_REGION_ORIGIN__>

Disassembly of section .text.playTone:

0000008e <playTone>:
#define F_CPU 1000000UL
#include <avr/io.h>
#include <util/delay.h>

void playTone(char note){
	switch (note)
  8e:	90 e0       	ldi	r25, 0x00	; 0
  90:	fc 01       	movw	r30, r24
  92:	e1 56       	subi	r30, 0x61	; 97
  94:	f1 09       	sbc	r31, r1
  96:	e7 30       	cpi	r30, 0x07	; 7
  98:	f1 05       	cpc	r31, r1
  9a:	08 f0       	brcs	.+2      	; 0x9e <playTone+0x10>
  9c:	d0 c0       	rjmp	.+416    	; 0x23e <__EEPROM_REGION_LENGTH__+0x3e>
  9e:	ec 5c       	subi	r30, 0xCC	; 204
  a0:	ff 4f       	sbci	r31, 0xFF	; 255
  a2:	0c 94 1d 02 	jmp	0x43a	; 0x43a <__tablejump2__>
	{
		case 'a':
		for(int i = 0; i <= 1000; i += 2)
		{
			PORTB |= (1 << PB1);
  a6:	85 b1       	in	r24, 0x05	; 5
  a8:	82 60       	ori	r24, 0x02	; 2
  aa:	85 b9       	out	0x05, r24	; 5
	#else
		//round up by default
		__ticks_dc = (uint32_t)(ceil(fabs(__tmp)));
	#endif

	__builtin_avr_delay_cycles(__ticks_dc);
  ac:	84 e2       	ldi	r24, 0x24	; 36
  ae:	8a 95       	dec	r24
  b0:	f1 f7       	brne	.-4      	; 0xae <playTone+0x20>
  b2:	00 c0       	rjmp	.+0      	; 0xb4 <playTone+0x26>
			_delay_us(110);
			PORTB &= ~(1 << PB1);
  b4:	85 b1       	in	r24, 0x05	; 5
  b6:	8d 7f       	andi	r24, 0xFD	; 253
  b8:	85 b9       	out	0x05, r24	; 5
  ba:	94 e2       	ldi	r25, 0x24	; 36
  bc:	9a 95       	dec	r25
  be:	f1 f7       	brne	.-4      	; 0xbc <playTone+0x2e>
  c0:	00 c0       	rjmp	.+0      	; 0xc2 <playTone+0x34>

void playTone(char note){
	switch (note)
	{
		case 'a':
		for(int i = 0; i <= 1000; i += 2)
  c2:	2e 5f       	subi	r18, 0xFE	; 254
  c4:	3f 4f       	sbci	r19, 0xFF	; 255
  c6:	02 c0       	rjmp	.+4      	; 0xcc <playTone+0x3e>
#define F_CPU 1000000UL
#include <avr/io.h>
#include <util/delay.h>

void playTone(char note){
	switch (note)
  c8:	20 e0       	ldi	r18, 0x00	; 0
  ca:	30 e0       	ldi	r19, 0x00	; 0
	{
		case 'a':
		for(int i = 0; i <= 1000; i += 2)
  cc:	29 3e       	cpi	r18, 0xE9	; 233
  ce:	83 e0       	ldi	r24, 0x03	; 3
  d0:	38 07       	cpc	r19, r24
  d2:	4c f3       	brlt	.-46     	; 0xa6 <playTone+0x18>
			PORTB |= (1 << PB1);
			_delay_us(110);
			PORTB &= ~(1 << PB1);
			_delay_us(110);
		}
		PORTB &= ~(1 << PB1);
  d4:	85 b1       	in	r24, 0x05	; 5
  d6:	8d 7f       	andi	r24, 0xFD	; 253
  d8:	85 b9       	out	0x05, r24	; 5
		break;
  da:	08 95       	ret
		case 'b':
		for(int i = 0; i <= 1000; i += 16)
		{
			PORTB |= (1 << PB1);
  dc:	85 b1       	in	r24, 0x05	; 5
  de:	82 60       	ori	r24, 0x02	; 2
  e0:	85 b9       	out	0x05, r24	; 5
  e2:	8f ef       	ldi	r24, 0xFF	; 255
  e4:	90 e0       	ldi	r25, 0x00	; 0
  e6:	01 97       	sbiw	r24, 0x01	; 1
  e8:	f1 f7       	brne	.-4      	; 0xe6 <playTone+0x58>
  ea:	00 c0       	rjmp	.+0      	; 0xec <playTone+0x5e>
  ec:	00 00       	nop
			_delay_us(1024);
			PORTB &= ~(1 << PB1);
  ee:	85 b1       	in	r24, 0x05	; 5
  f0:	8d 7f       	andi	r24, 0xFD	; 253
  f2:	85 b9       	out	0x05, r24	; 5
  f4:	8f ef       	ldi	r24, 0xFF	; 255
  f6:	90 e0       	ldi	r25, 0x00	; 0
  f8:	01 97       	sbiw	r24, 0x01	; 1
  fa:	f1 f7       	brne	.-4      	; 0xf8 <playTone+0x6a>
  fc:	00 c0       	rjmp	.+0      	; 0xfe <playTone+0x70>
  fe:	00 00       	nop
			_delay_us(110);
		}
		PORTB &= ~(1 << PB1);
		break;
		case 'b':
		for(int i = 0; i <= 1000; i += 16)
 100:	20 5f       	subi	r18, 0xF0	; 240
 102:	3f 4f       	sbci	r19, 0xFF	; 255
 104:	02 c0       	rjmp	.+4      	; 0x10a <playTone+0x7c>
#define F_CPU 1000000UL
#include <avr/io.h>
#include <util/delay.h>

void playTone(char note){
	switch (note)
 106:	20 e0       	ldi	r18, 0x00	; 0
 108:	30 e0       	ldi	r19, 0x00	; 0
			_delay_us(110);
		}
		PORTB &= ~(1 << PB1);
		break;
		case 'b':
		for(int i = 0; i <= 1000; i += 16)
 10a:	29 3e       	cpi	r18, 0xE9	; 233
 10c:	93 e0       	ldi	r25, 0x03	; 3
 10e:	39 07       	cpc	r19, r25
 110:	2c f3       	brlt	.-54     	; 0xdc <playTone+0x4e>
			PORTB |= (1 << PB1);
			_delay_us(1024);
			PORTB &= ~(1 << PB1);
			_delay_us(1024);
		}
		PORTB &= ~(1 << PB1);
 112:	85 b1       	in	r24, 0x05	; 5
 114:	8d 7f       	andi	r24, 0xFD	; 253
 116:	85 b9       	out	0x05, r24	; 5
		break;
 118:	08 95       	ret
		case 'c':
		for(int i = 0; i <= 1000; i += 8)
		{
			PORTB |= (1 << PB1);
 11a:	85 b1       	in	r24, 0x05	; 5
 11c:	82 60       	ori	r24, 0x02	; 2
 11e:	85 b9       	out	0x05, r24	; 5
 120:	8a ea       	ldi	r24, 0xAA	; 170
 122:	8a 95       	dec	r24
 124:	f1 f7       	brne	.-4      	; 0x122 <playTone+0x94>
 126:	00 c0       	rjmp	.+0      	; 0x128 <playTone+0x9a>
			_delay_us(512);
			PORTB &= ~(1 << PB1);
 128:	85 b1       	in	r24, 0x05	; 5
 12a:	8d 7f       	andi	r24, 0xFD	; 253
 12c:	85 b9       	out	0x05, r24	; 5
 12e:	9a ea       	ldi	r25, 0xAA	; 170
 130:	9a 95       	dec	r25
 132:	f1 f7       	brne	.-4      	; 0x130 <playTone+0xa2>
 134:	00 c0       	rjmp	.+0      	; 0x136 <playTone+0xa8>
			_delay_us(1024);
		}
		PORTB &= ~(1 << PB1);
		break;
		case 'c':
		for(int i = 0; i <= 1000; i += 8)
 136:	28 5f       	subi	r18, 0xF8	; 248
 138:	3f 4f       	sbci	r19, 0xFF	; 255
 13a:	02 c0       	rjmp	.+4      	; 0x140 <playTone+0xb2>
#define F_CPU 1000000UL
#include <avr/io.h>
#include <util/delay.h>

void playTone(char note){
	switch (note)
 13c:	20 e0       	ldi	r18, 0x00	; 0
 13e:	30 e0       	ldi	r19, 0x00	; 0
			_delay_us(1024);
		}
		PORTB &= ~(1 << PB1);
		break;
		case 'c':
		for(int i = 0; i <= 1000; i += 8)
 140:	29 3e       	cpi	r18, 0xE9	; 233
 142:	83 e0       	ldi	r24, 0x03	; 3
 144:	38 07       	cpc	r19, r24
 146:	4c f3       	brlt	.-46     	; 0x11a <playTone+0x8c>
			PORTB |= (1 << PB1);
			_delay_us(512);
			PORTB &= ~(1 << PB1);
			_delay_us(512);
		}
		PORTB &= ~(1 << PB1);
 148:	85 b1       	in	r24, 0x05	; 5
 14a:	8d 7f       	andi	r24, 0xFD	; 253
 14c:	85 b9       	out	0x05, r24	; 5
		break;
 14e:	08 95       	ret
		case 'd':
		for(int i = 0; i <= 1000; i += 12)
		{
			PORTB |= (1 << PB1);
 150:	85 b1       	in	r24, 0x05	; 5
 152:	82 60       	ori	r24, 0x02	; 2
 154:	85 b9       	out	0x05, r24	; 5
 156:	92 e9       	ldi	r25, 0x92	; 146
 158:	9a 95       	dec	r25
 15a:	f1 f7       	brne	.-4      	; 0x158 <playTone+0xca>
 15c:	00 c0       	rjmp	.+0      	; 0x15e <playTone+0xd0>
			_delay_us(440);
			PORTB &= ~(1 << PB1);
 15e:	85 b1       	in	r24, 0x05	; 5
 160:	8d 7f       	andi	r24, 0xFD	; 253
 162:	85 b9       	out	0x05, r24	; 5
 164:	82 e9       	ldi	r24, 0x92	; 146
 166:	8a 95       	dec	r24
 168:	f1 f7       	brne	.-4      	; 0x166 <playTone+0xd8>
 16a:	00 c0       	rjmp	.+0      	; 0x16c <playTone+0xde>
			_delay_us(512);
		}
		PORTB &= ~(1 << PB1);
		break;
		case 'd':
		for(int i = 0; i <= 1000; i += 12)
 16c:	24 5f       	subi	r18, 0xF4	; 244
 16e:	3f 4f       	sbci	r19, 0xFF	; 255
 170:	02 c0       	rjmp	.+4      	; 0x176 <playTone+0xe8>
#define F_CPU 1000000UL
#include <avr/io.h>
#include <util/delay.h>

void playTone(char note){
	switch (note)
 172:	20 e0       	ldi	r18, 0x00	; 0
 174:	30 e0       	ldi	r19, 0x00	; 0
			_delay_us(512);
		}
		PORTB &= ~(1 << PB1);
		break;
		case 'd':
		for(int i = 0; i <= 1000; i += 12)
 176:	29 3e       	cpi	r18, 0xE9	; 233
 178:	93 e0       	ldi	r25, 0x03	; 3
 17a:	39 07       	cpc	r19, r25
 17c:	4c f3       	brlt	.-46     	; 0x150 <playTone+0xc2>
			PORTB |= (1 << PB1);
			_delay_us(440);
			PORTB &= ~(1 << PB1);
			_delay_us(440);
		}
		PORTB &= ~(1 << PB1);
 17e:	85 b1       	in	r24, 0x05	; 5
 180:	8d 7f       	andi	r24, 0xFD	; 253
 182:	85 b9       	out	0x05, r24	; 5
		break;
 184:	08 95       	ret
		case 'e':
		for(int i = 0; i <= 1000; i += 10)
		{
			PORTB |= (1 << PB1);
 186:	85 b1       	in	r24, 0x05	; 5
 188:	82 60       	ori	r24, 0x02	; 2
 18a:	85 b9       	out	0x05, r24	; 5
 18c:	85 e2       	ldi	r24, 0x25	; 37
 18e:	92 e0       	ldi	r25, 0x02	; 2
 190:	01 97       	sbiw	r24, 0x01	; 1
 192:	f1 f7       	brne	.-4      	; 0x190 <playTone+0x102>
 194:	00 c0       	rjmp	.+0      	; 0x196 <playTone+0x108>
 196:	00 00       	nop
			_delay_us(2200);
			PORTB &= ~(1 << PB1);
 198:	85 b1       	in	r24, 0x05	; 5
 19a:	8d 7f       	andi	r24, 0xFD	; 253
 19c:	85 b9       	out	0x05, r24	; 5
 19e:	85 e2       	ldi	r24, 0x25	; 37
 1a0:	92 e0       	ldi	r25, 0x02	; 2
 1a2:	01 97       	sbiw	r24, 0x01	; 1
 1a4:	f1 f7       	brne	.-4      	; 0x1a2 <playTone+0x114>
 1a6:	00 c0       	rjmp	.+0      	; 0x1a8 <playTone+0x11a>
 1a8:	00 00       	nop
			_delay_us(440);
		}
		PORTB &= ~(1 << PB1);
		break;
		case 'e':
		for(int i = 0; i <= 1000; i += 10)
 1aa:	26 5f       	subi	r18, 0xF6	; 246
 1ac:	3f 4f       	sbci	r19, 0xFF	; 255
 1ae:	02 c0       	rjmp	.+4      	; 0x1b4 <playTone+0x126>
#define F_CPU 1000000UL
#include <avr/io.h>
#include <util/delay.h>

void playTone(char note){
	switch (note)
 1b0:	20 e0       	ldi	r18, 0x00	; 0
 1b2:	30 e0       	ldi	r19, 0x00	; 0
			_delay_us(440);
		}
		PORTB &= ~(1 << PB1);
		break;
		case 'e':
		for(int i = 0; i <= 1000; i += 10)
 1b4:	29 3e       	cpi	r18, 0xE9	; 233
 1b6:	93 e0       	ldi	r25, 0x03	; 3
 1b8:	39 07       	cpc	r19, r25
 1ba:	2c f3       	brlt	.-54     	; 0x186 <playTone+0xf8>
			PORTB |= (1 << PB1);
			_delay_us(2200);
			PORTB &= ~(1 << PB1);
			_delay_us(2200);
		}
		PORTB &= ~(1 << PB1);
 1bc:	85 b1       	in	r24, 0x05	; 5
 1be:	8d 7f       	andi	r24, 0xFD	; 253
 1c0:	85 b9       	out	0x05, r24	; 5
		break;
 1c2:	08 95       	ret
		case 'f':
		for(int i = 0; i <= 1000; i += 8)
		{
			PORTB |= (1 << PB1);
 1c4:	85 b1       	in	r24, 0x05	; 5
 1c6:	82 60       	ori	r24, 0x02	; 2
 1c8:	85 b9       	out	0x05, r24	; 5
 1ca:	83 e5       	ldi	r24, 0x53	; 83
 1cc:	91 e0       	ldi	r25, 0x01	; 1
 1ce:	01 97       	sbiw	r24, 0x01	; 1
 1d0:	f1 f7       	brne	.-4      	; 0x1ce <playTone+0x140>
 1d2:	00 c0       	rjmp	.+0      	; 0x1d4 <playTone+0x146>
 1d4:	00 00       	nop
			_delay_us(1360);
			PORTB &= ~(1 << PB1);
 1d6:	85 b1       	in	r24, 0x05	; 5
 1d8:	8d 7f       	andi	r24, 0xFD	; 253
 1da:	85 b9       	out	0x05, r24	; 5
 1dc:	83 e5       	ldi	r24, 0x53	; 83
 1de:	91 e0       	ldi	r25, 0x01	; 1
 1e0:	01 97       	sbiw	r24, 0x01	; 1
 1e2:	f1 f7       	brne	.-4      	; 0x1e0 <playTone+0x152>
 1e4:	00 c0       	rjmp	.+0      	; 0x1e6 <playTone+0x158>
 1e6:	00 00       	nop
			_delay_us(2200);
		}
		PORTB &= ~(1 << PB1);
		break;
		case 'f':
		for(int i = 0; i <= 1000; i += 8)
 1e8:	28 5f       	subi	r18, 0xF8	; 248
 1ea:	3f 4f       	sbci	r19, 0xFF	; 255
 1ec:	02 c0       	rjmp	.+4      	; 0x1f2 <playTone+0x164>
#define F_CPU 1000000UL
#include <avr/io.h>
#include <util/delay.h>

void playTone(char note){
	switch (note)
 1ee:	20 e0       	ldi	r18, 0x00	; 0
 1f0:	30 e0       	ldi	r19, 0x00	; 0
			_delay_us(2200);
		}
		PORTB &= ~(1 << PB1);
		break;
		case 'f':
		for(int i = 0; i <= 1000; i += 8)
 1f2:	29 3e       	cpi	r18, 0xE9	; 233
 1f4:	93 e0       	ldi	r25, 0x03	; 3
 1f6:	39 07       	cpc	r19, r25
 1f8:	2c f3       	brlt	.-54     	; 0x1c4 <playTone+0x136>
			PORTB |= (1 << PB1);
			_delay_us(1360);
			PORTB &= ~(1 << PB1);
			_delay_us(1360);
		}
		PORTB &= ~(1 << PB1);
 1fa:	85 b1       	in	r24, 0x05	; 5
 1fc:	8d 7f       	andi	r24, 0xFD	; 253
 1fe:	85 b9       	out	0x05, r24	; 5
		break;
 200:	08 95       	ret
		case 'g':
		for(int i = 0; i <= 1000; i += 220)
		{
			PORTB |= (1 << PB1);
 202:	85 b1       	in	r24, 0x05	; 5
 204:	82 60       	ori	r24, 0x02	; 2
 206:	85 b9       	out	0x05, r24	; 5
 208:	83 e5       	ldi	r24, 0x53	; 83
 20a:	91 e0       	ldi	r25, 0x01	; 1
 20c:	01 97       	sbiw	r24, 0x01	; 1
 20e:	f1 f7       	brne	.-4      	; 0x20c <__EEPROM_REGION_LENGTH__+0xc>
 210:	00 c0       	rjmp	.+0      	; 0x212 <__EEPROM_REGION_LENGTH__+0x12>
 212:	00 00       	nop
			_delay_us(1360);
			PORTB &= ~(1 << PB1);
 214:	85 b1       	in	r24, 0x05	; 5
 216:	8d 7f       	andi	r24, 0xFD	; 253
 218:	85 b9       	out	0x05, r24	; 5
 21a:	83 e5       	ldi	r24, 0x53	; 83
 21c:	91 e0       	ldi	r25, 0x01	; 1
 21e:	01 97       	sbiw	r24, 0x01	; 1
 220:	f1 f7       	brne	.-4      	; 0x21e <__EEPROM_REGION_LENGTH__+0x1e>
 222:	00 c0       	rjmp	.+0      	; 0x224 <__EEPROM_REGION_LENGTH__+0x24>
 224:	00 00       	nop
			_delay_us(1360);
		}
		PORTB &= ~(1 << PB1);
		break;
		case 'g':
		for(int i = 0; i <= 1000; i += 220)
 226:	24 52       	subi	r18, 0x24	; 36
 228:	3f 4f       	sbci	r19, 0xFF	; 255
 22a:	02 c0       	rjmp	.+4      	; 0x230 <__EEPROM_REGION_LENGTH__+0x30>
#define F_CPU 1000000UL
#include <avr/io.h>
#include <util/delay.h>

void playTone(char note){
	switch (note)
 22c:	20 e0       	ldi	r18, 0x00	; 0
 22e:	30 e0       	ldi	r19, 0x00	; 0
			_delay_us(1360);
		}
		PORTB &= ~(1 << PB1);
		break;
		case 'g':
		for(int i = 0; i <= 1000; i += 220)
 230:	29 3e       	cpi	r18, 0xE9	; 233
 232:	93 e0       	ldi	r25, 0x03	; 3
 234:	39 07       	cpc	r19, r25
 236:	2c f3       	brlt	.-54     	; 0x202 <__EEPROM_REGION_LENGTH__+0x2>
			PORTB |= (1 << PB1);
			_delay_us(1360);
			PORTB &= ~(1 << PB1);
			_delay_us(1360);
		}
		PORTB &= ~(1 << PB1);
 238:	85 b1       	in	r24, 0x05	; 5
 23a:	8d 7f       	andi	r24, 0xFD	; 253
 23c:	85 b9       	out	0x05, r24	; 5
 23e:	08 95       	ret

Disassembly of section .text.sound_success:

0000040a <sound_success>:
	}
	
	
}
void sound_success(){
	playTone('b');
 40a:	82 e6       	ldi	r24, 0x62	; 98
 40c:	0e 94 47 00 	call	0x8e	; 0x8e <__data_load_end>
	playTone('c');
 410:	83 e6       	ldi	r24, 0x63	; 99
 412:	0e 94 47 00 	call	0x8e	; 0x8e <__data_load_end>
	playTone('a');
 416:	81 e6       	ldi	r24, 0x61	; 97
 418:	0e 94 47 00 	call	0x8e	; 0x8e <__data_load_end>
 41c:	08 95       	ret

Disassembly of section .text.sound_input:

00000446 <sound_input>:
}
void sound_input(){
	playTone('d');
 446:	84 e6       	ldi	r24, 0x64	; 100
 448:	0e 94 47 00 	call	0x8e	; 0x8e <__data_load_end>
 44c:	08 95       	ret

Disassembly of section .text.sound_fail:

0000041e <sound_fail>:
}
void sound_fail(){
	playTone('f');
 41e:	86 e6       	ldi	r24, 0x66	; 102
 420:	0e 94 47 00 	call	0x8e	; 0x8e <__data_load_end>
	playTone('e');
 424:	85 e6       	ldi	r24, 0x65	; 101
 426:	0e 94 47 00 	call	0x8e	; 0x8e <__data_load_end>
 42a:	08 95       	ret

Disassembly of section .text.initIOports:

000003d4 <initIOports>:
void initUSART(void) {
	UBRR0H = 0;              /* baud rate  */
	UBRR0L = 0x0C;           /* 9600 */
	UCSR0A |= (1 << U2X0);      /* mode asynchrone double vitesse */
	UCSR0B |= (1 << TXEN0) | (1 << RXEN0);    /* Activer emission et reception  USART */
	UCSR0C |= (1 << UCSZ01) | (1 << UCSZ00);   /* 8 data bits, 1 stop bit, valeur au reset*/
 3d4:	84 b1       	in	r24, 0x04	; 4
 3d6:	82 60       	ori	r24, 0x02	; 2
 3d8:	84 b9       	out	0x04, r24	; 4
 3da:	87 b1       	in	r24, 0x07	; 7
 3dc:	81 60       	ori	r24, 0x01	; 1
 3de:	87 b9       	out	0x07, r24	; 7
 3e0:	87 b1       	in	r24, 0x07	; 7
 3e2:	82 60       	ori	r24, 0x02	; 2
 3e4:	87 b9       	out	0x07, r24	; 7
 3e6:	87 b1       	in	r24, 0x07	; 7
 3e8:	8b 7f       	andi	r24, 0xFB	; 251
 3ea:	87 b9       	out	0x07, r24	; 7
 3ec:	88 b1       	in	r24, 0x08	; 8
 3ee:	84 60       	ori	r24, 0x04	; 4
 3f0:	88 b9       	out	0x08, r24	; 8
 3f2:	08 95       	ret

Disassembly of section .text.transmitByte:

0000042c <transmitByte>:
}
//transmettre un caractère
void transmitByte(uint8_t data) {
	while ( !( UCSR0A & (1<<UDRE0)) ); /* Attendre que le buffer de transmission soit vide */
 42c:	90 91 c0 00 	lds	r25, 0x00C0	; 0x8000c0 <__TEXT_REGION_LENGTH__+0x7fc0c0>
 430:	95 ff       	sbrs	r25, 5
 432:	fc cf       	rjmp	.-8      	; 0x42c <transmitByte>
	UDR0 = data;                      /* envoyer la donnée */
 434:	80 93 c6 00 	sts	0x00C6, r24	; 0x8000c6 <__TEXT_REGION_LENGTH__+0x7fc0c6>
 438:	08 95       	ret

Disassembly of section .text.readShiftRegisters:

00000370 <readShiftRegisters>:
void initUSART(void) {
	UBRR0H = 0;              /* baud rate  */
	UBRR0L = 0x0C;           /* 9600 */
	UCSR0A |= (1 << U2X0);      /* mode asynchrone double vitesse */
	UCSR0B |= (1 << TXEN0) | (1 << RXEN0);    /* Activer emission et reception  USART */
	UCSR0C |= (1 << UCSZ01) | (1 << UCSZ00);   /* 8 data bits, 1 stop bit, valeur au reset*/
 370:	88 b1       	in	r24, 0x08	; 8
 372:	81 60       	ori	r24, 0x01	; 1
 374:	88 b9       	out	0x08, r24	; 8
 376:	85 e0       	ldi	r24, 0x05	; 5
 378:	8a 95       	dec	r24
 37a:	f1 f7       	brne	.-4      	; 0x378 <readShiftRegisters+0x8>
 37c:	88 b1       	in	r24, 0x08	; 8
 37e:	8e 7f       	andi	r24, 0xFE	; 254
 380:	88 b9       	out	0x08, r24	; 8
 382:	85 e0       	ldi	r24, 0x05	; 5
 384:	8a 95       	dec	r24
 386:	f1 f7       	brne	.-4      	; 0x384 <readShiftRegisters+0x14>
 388:	88 b1       	in	r24, 0x08	; 8
 38a:	8e 7f       	andi	r24, 0xFE	; 254
 38c:	88 b9       	out	0x08, r24	; 8
 38e:	85 e0       	ldi	r24, 0x05	; 5
 390:	8a 95       	dec	r24
 392:	f1 f7       	brne	.-4      	; 0x390 <readShiftRegisters+0x20>
 394:	40 e0       	ldi	r20, 0x00	; 0
 396:	50 e0       	ldi	r21, 0x00	; 0
 398:	60 e0       	ldi	r22, 0x00	; 0
 39a:	70 e0       	ldi	r23, 0x00	; 0
 39c:	16 c0       	rjmp	.+44     	; 0x3ca <readShiftRegisters+0x5a>
 39e:	98 b1       	in	r25, 0x08	; 8
 3a0:	92 60       	ori	r25, 0x02	; 2
 3a2:	98 b9       	out	0x08, r25	; 8
 3a4:	85 e0       	ldi	r24, 0x05	; 5
 3a6:	8a 95       	dec	r24
 3a8:	f1 f7       	brne	.-4      	; 0x3a6 <readShiftRegisters+0x36>
 3aa:	98 b1       	in	r25, 0x08	; 8
 3ac:	9d 7f       	andi	r25, 0xFD	; 253
 3ae:	98 b9       	out	0x08, r25	; 8
 3b0:	26 b1       	in	r18, 0x06	; 6
 3b2:	24 70       	andi	r18, 0x04	; 4
 3b4:	30 e0       	ldi	r19, 0x00	; 0
 3b6:	04 2e       	mov	r0, r20
 3b8:	02 c0       	rjmp	.+4      	; 0x3be <readShiftRegisters+0x4e>
 3ba:	22 0f       	add	r18, r18
 3bc:	33 1f       	adc	r19, r19
 3be:	0a 94       	dec	r0
 3c0:	e2 f7       	brpl	.-8      	; 0x3ba <readShiftRegisters+0x4a>
 3c2:	62 2b       	or	r22, r18
 3c4:	73 2b       	or	r23, r19
 3c6:	4f 5f       	subi	r20, 0xFF	; 255
 3c8:	5f 4f       	sbci	r21, 0xFF	; 255
 3ca:	40 31       	cpi	r20, 0x10	; 16
 3cc:	51 05       	cpc	r21, r1
 3ce:	3c f3       	brlt	.-50     	; 0x39e <readShiftRegisters+0x2e>
 3d0:	cb 01       	movw	r24, r22
 3d2:	08 95       	ret

Disassembly of section .text.main:

00000240 <main>:
 240:	0e 94 ea 01 	call	0x3d4	; 0x3d4 <initIOports>
 244:	0e 94 0f 02 	call	0x41e	; 0x41e <sound_fail>
 248:	0e 94 23 02 	call	0x446	; 0x446 <sound_input>
 24c:	0e 94 05 02 	call	0x40a	; 0x40a <sound_success>
 250:	0e 94 b8 01 	call	0x370	; 0x370 <readShiftRegisters>
 254:	80 38       	cpi	r24, 0x80	; 128
 256:	91 05       	cpc	r25, r1
 258:	09 f4       	brne	.+2      	; 0x25c <main+0x1c>
 25a:	68 c0       	rjmp	.+208    	; 0x32c <main+0xec>
 25c:	a0 f4       	brcc	.+40     	; 0x286 <main+0x46>
 25e:	80 31       	cpi	r24, 0x10	; 16
 260:	91 05       	cpc	r25, r1
 262:	09 f4       	brne	.+2      	; 0x266 <main+0x26>
 264:	47 c0       	rjmp	.+142    	; 0x2f4 <main+0xb4>
 266:	40 f4       	brcc	.+16     	; 0x278 <main+0x38>
 268:	81 30       	cpi	r24, 0x01	; 1
 26a:	91 05       	cpc	r25, r1
 26c:	09 f4       	brne	.+2      	; 0x270 <main+0x30>
 26e:	57 c0       	rjmp	.+174    	; 0x31e <main+0xde>
 270:	08 97       	sbiw	r24, 0x08	; 8
 272:	09 f4       	brne	.+2      	; 0x276 <main+0x36>
 274:	69 c0       	rjmp	.+210    	; 0x348 <main+0x108>
 276:	75 c0       	rjmp	.+234    	; 0x362 <main+0x122>
 278:	80 32       	cpi	r24, 0x20	; 32
 27a:	91 05       	cpc	r25, r1
 27c:	31 f1       	breq	.+76     	; 0x2ca <main+0x8a>
 27e:	80 34       	cpi	r24, 0x40	; 64
 280:	91 05       	cpc	r25, r1
 282:	e1 f0       	breq	.+56     	; 0x2bc <main+0x7c>
 284:	6e c0       	rjmp	.+220    	; 0x362 <main+0x122>
 286:	81 15       	cp	r24, r1
 288:	20 e1       	ldi	r18, 0x10	; 16
 28a:	92 07       	cpc	r25, r18
 28c:	09 f4       	brne	.+2      	; 0x290 <main+0x50>
 28e:	63 c0       	rjmp	.+198    	; 0x356 <main+0x116>
 290:	40 f4       	brcc	.+16     	; 0x2a2 <main+0x62>
 292:	81 15       	cp	r24, r1
 294:	21 e0       	ldi	r18, 0x01	; 1
 296:	92 07       	cpc	r25, r18
 298:	f9 f0       	breq	.+62     	; 0x2d8 <main+0x98>
 29a:	81 15       	cp	r24, r1
 29c:	98 40       	sbci	r25, 0x08	; 8
 29e:	89 f1       	breq	.+98     	; 0x302 <main+0xc2>
 2a0:	60 c0       	rjmp	.+192    	; 0x362 <main+0x122>
 2a2:	81 15       	cp	r24, r1
 2a4:	20 e4       	ldi	r18, 0x40	; 64
 2a6:	92 07       	cpc	r25, r18
 2a8:	99 f1       	breq	.+102    	; 0x310 <main+0xd0>
 2aa:	81 15       	cp	r24, r1
 2ac:	20 e8       	ldi	r18, 0x80	; 128
 2ae:	92 07       	cpc	r25, r18
 2b0:	d1 f0       	breq	.+52     	; 0x2e6 <main+0xa6>
 2b2:	81 15       	cp	r24, r1
 2b4:	90 42       	sbci	r25, 0x20	; 32
 2b6:	09 f0       	breq	.+2      	; 0x2ba <main+0x7a>
 2b8:	54 c0       	rjmp	.+168    	; 0x362 <main+0x122>
 2ba:	3f c0       	rjmp	.+126    	; 0x33a <main+0xfa>
 2bc:	85 b1       	in	r24, 0x05	; 5
 2be:	81 60       	ori	r24, 0x01	; 1
 2c0:	85 b9       	out	0x05, r24	; 5
 2c2:	80 e3       	ldi	r24, 0x30	; 48
 2c4:	0e 94 16 02 	call	0x42c	; 0x42c <transmitByte>
 2c8:	4c c0       	rjmp	.+152    	; 0x362 <main+0x122>
 2ca:	85 b1       	in	r24, 0x05	; 5
 2cc:	8e 7f       	andi	r24, 0xFE	; 254
 2ce:	85 b9       	out	0x05, r24	; 5
 2d0:	81 e3       	ldi	r24, 0x31	; 49
 2d2:	0e 94 16 02 	call	0x42c	; 0x42c <transmitByte>
 2d6:	45 c0       	rjmp	.+138    	; 0x362 <main+0x122>
 2d8:	85 b1       	in	r24, 0x05	; 5
 2da:	81 60       	ori	r24, 0x01	; 1
 2dc:	85 b9       	out	0x05, r24	; 5
 2de:	82 e3       	ldi	r24, 0x32	; 50
 2e0:	0e 94 16 02 	call	0x42c	; 0x42c <transmitByte>
 2e4:	3e c0       	rjmp	.+124    	; 0x362 <main+0x122>
 2e6:	85 b1       	in	r24, 0x05	; 5
 2e8:	8e 7f       	andi	r24, 0xFE	; 254
 2ea:	85 b9       	out	0x05, r24	; 5
 2ec:	82 e3       	ldi	r24, 0x32	; 50
 2ee:	0e 94 16 02 	call	0x42c	; 0x42c <transmitByte>
 2f2:	37 c0       	rjmp	.+110    	; 0x362 <main+0x122>
 2f4:	85 b1       	in	r24, 0x05	; 5
 2f6:	81 60       	ori	r24, 0x01	; 1
 2f8:	85 b9       	out	0x05, r24	; 5
 2fa:	84 e3       	ldi	r24, 0x34	; 52
 2fc:	0e 94 16 02 	call	0x42c	; 0x42c <transmitByte>
 300:	30 c0       	rjmp	.+96     	; 0x362 <main+0x122>
 302:	85 b1       	in	r24, 0x05	; 5
 304:	8e 7f       	andi	r24, 0xFE	; 254
 306:	85 b9       	out	0x05, r24	; 5
 308:	85 e3       	ldi	r24, 0x35	; 53
 30a:	0e 94 16 02 	call	0x42c	; 0x42c <transmitByte>
 30e:	29 c0       	rjmp	.+82     	; 0x362 <main+0x122>
 310:	85 b1       	in	r24, 0x05	; 5
 312:	81 60       	ori	r24, 0x01	; 1
 314:	85 b9       	out	0x05, r24	; 5
 316:	86 e3       	ldi	r24, 0x36	; 54
 318:	0e 94 16 02 	call	0x42c	; 0x42c <transmitByte>
 31c:	22 c0       	rjmp	.+68     	; 0x362 <main+0x122>
 31e:	85 b1       	in	r24, 0x05	; 5
 320:	8e 7f       	andi	r24, 0xFE	; 254
 322:	85 b9       	out	0x05, r24	; 5
 324:	87 e3       	ldi	r24, 0x37	; 55
 326:	0e 94 16 02 	call	0x42c	; 0x42c <transmitByte>
 32a:	1b c0       	rjmp	.+54     	; 0x362 <main+0x122>
 32c:	85 b1       	in	r24, 0x05	; 5
 32e:	81 60       	ori	r24, 0x01	; 1
 330:	85 b9       	out	0x05, r24	; 5
 332:	88 e3       	ldi	r24, 0x38	; 56
 334:	0e 94 16 02 	call	0x42c	; 0x42c <transmitByte>
 338:	14 c0       	rjmp	.+40     	; 0x362 <main+0x122>
 33a:	85 b1       	in	r24, 0x05	; 5
 33c:	8e 7f       	andi	r24, 0xFE	; 254
 33e:	85 b9       	out	0x05, r24	; 5
 340:	89 e3       	ldi	r24, 0x39	; 57
 342:	0e 94 16 02 	call	0x42c	; 0x42c <transmitByte>
 346:	0d c0       	rjmp	.+26     	; 0x362 <main+0x122>
 348:	85 b1       	in	r24, 0x05	; 5
 34a:	81 60       	ori	r24, 0x01	; 1
 34c:	85 b9       	out	0x05, r24	; 5
 34e:	8a e2       	ldi	r24, 0x2A	; 42
 350:	0e 94 16 02 	call	0x42c	; 0x42c <transmitByte>
 354:	06 c0       	rjmp	.+12     	; 0x362 <main+0x122>
 356:	85 b1       	in	r24, 0x05	; 5
 358:	8e 7f       	andi	r24, 0xFE	; 254
 35a:	85 b9       	out	0x05, r24	; 5
 35c:	83 e2       	ldi	r24, 0x23	; 35
 35e:	0e 94 16 02 	call	0x42c	; 0x42c <transmitByte>
 362:	83 ec       	ldi	r24, 0xC3	; 195
 364:	99 e0       	ldi	r25, 0x09	; 9
 366:	01 97       	sbiw	r24, 0x01	; 1
 368:	f1 f7       	brne	.-4      	; 0x366 <main+0x126>
 36a:	00 c0       	rjmp	.+0      	; 0x36c <main+0x12c>
 36c:	00 00       	nop
 36e:	70 cf       	rjmp	.-288    	; 0x250 <main+0x10>

Disassembly of section .text.libgcc:

0000043a <__tablejump2__>:
 43a:	ee 0f       	add	r30, r30
 43c:	ff 1f       	adc	r31, r31
 43e:	05 90       	lpm	r0, Z+
 440:	f4 91       	lpm	r31, Z
 442:	e0 2d       	mov	r30, r0
 444:	09 94       	ijmp

Disassembly of section .text.__dummy_fini:

00000456 <_fini>:
 456:	08 95       	ret

Disassembly of section .text.__dummy_funcs_on_exit:

00000458 <__funcs_on_exit>:
 458:	08 95       	ret

Disassembly of section .text.__dummy_simulator_exit:

0000045a <__simulator_exit>:
 45a:	08 95       	ret

Disassembly of section .text.exit:

000003f4 <exit>:
 3f4:	ec 01       	movw	r28, r24
 3f6:	0e 94 2c 02 	call	0x458	; 0x458 <__funcs_on_exit>
 3fa:	0e 94 2b 02 	call	0x456	; 0x456 <_fini>
 3fe:	ce 01       	movw	r24, r28
 400:	0e 94 2d 02 	call	0x45a	; 0x45a <__simulator_exit>
 404:	ce 01       	movw	r24, r28
 406:	0e 94 29 02 	call	0x452	; 0x452 <_Exit>

Disassembly of section .text._Exit:

00000452 <_Exit>:
 452:	0e 94 45 00 	call	0x8a	; 0x8a <_exit>
